target datalayout = "e-m:e-p270:32:32-p271:32:32-p272:64:64-i64:64-i128:128-f80:128-n8:16:32:64-S128"
target triple = "x86_64-pc-linux-gnu"

%class.Finally = type { %class.anon }
%class.anon = type { ptr, ptr, ptr }

@_ZTIN3nix8SysErrorE = linkonce_odr constant { ptr, ptr, ptr } { ptr getelementptr inbounds (ptr, ptr @_ZTVN10__cxxabiv120__si_class_type_infoE, i64 2), ptr @_ZTSN3nix8SysErrorE, ptr @_ZTIN3nix11SystemErrorE }, comdat, align 8
@.str.35 = private unnamed_addr constant [32 x i8] c"making file descriptor blocking\00", align 1

; Function Attrs: mustprogress uwtable
define linkonce_odr void @_ZN3nix8SysErrorC2IJA32_cEEEDpRKT_(ptr noundef nonnull align 8 dereferenceable(380) %0, ptr noundef nonnull align 1 dereferenceable(32) %1) unnamed_addr #3 comdat align 2 {
  %3 = alloca ptr, align 8
  %4 = alloca ptr, align 8
  store ptr %0, ptr %3, align 8
  store ptr %1, ptr %4, align 8
  %5 = load ptr, ptr %3, align 8
  %6 = call ptr @__errno_location() #20
  %7 = load i32, ptr %6, align 4
  %8 = load ptr, ptr %4, align 8
  call void @_ZN3nix8SysErrorC2IJA32_cEEEiDpRKT_(ptr noundef nonnull align 8 dereferenceable(380) %5, i32 noundef %7, ptr noundef nonnull align 1 dereferenceable(32) %8)
  ret void
}

; Function Attrs: mustprogress uwtable
define internal void @"_ZZN3nix7drainFDEiRNS_4SinkEbENK3$_0clEv"(ptr noundef nonnull align 8 dereferenceable(24) %0) #3 align 2 personality ptr @__gxx_personality_v0 {
  %2 = alloca ptr, align 8
  %3 = alloca ptr, align 8
  %4 = alloca i32, align 4
  store ptr %0, ptr %2, align 8
  %5 = load ptr, ptr %2, align 8
  %6 = getelementptr inbounds %class.anon, ptr %5, i32 0, i32 0
  %7 = load ptr, ptr %6, align 8
  %8 = load i8, ptr %7, align 1
  %9 = trunc i8 %8 to i1
  br i1 %9, label %27, label %10

10:                                               ; preds = %1
  %11 = getelementptr inbounds %class.anon, ptr %5, i32 0, i32 1
  %12 = load ptr, ptr %11, align 8
  %13 = load i32, ptr %12, align 4
  %14 = getelementptr inbounds %class.anon, ptr %5, i32 0, i32 2
  %15 = load ptr, ptr %14, align 8
  %16 = load i32, ptr %15, align 4
  %17 = call i32 (i32, i32, ...) @fcntl(i32 noundef %13, i32 noundef 4, i32 noundef %16)
  %18 = icmp eq i32 %17, -1
  br i1 %18, label %19, label %26

19:                                               ; preds = %10
  %20 = call ptr @__cxa_allocate_exception(i64 384) #1
  invoke void @_ZN3nix8SysErrorC2IJA32_cEEEDpRKT_(ptr noundef nonnull align 8 dereferenceable(380) %20, ptr noundef nonnull align 1 dereferenceable(32) @.str.35)
          to label %21 unwind label %22

21:                                               ; preds = %19
  call void @__cxa_throw(ptr %20, ptr @_ZTIN3nix8SysErrorE, ptr @_ZN3nix8SysErrorD2Ev) #19
  unreachable

22:                                               ; preds = %19
  %23 = landingpad { ptr, i32 }
          cleanup
  %24 = extractvalue { ptr, i32 } %23, 0
  store ptr %24, ptr %3, align 8
  %25 = extractvalue { ptr, i32 } %23, 1
  store i32 %25, ptr %4, align 4
  call void @__cxa_free_exception(ptr %20) #1
  br label %28

26:                                               ; preds = %10
  br label %27

27:                                               ; preds = %26, %1
  ret void

28:                                               ; preds = %22
  %29 = load ptr, ptr %3, align 8
  %30 = load i32, ptr %4, align 4
  %31 = insertvalue { ptr, i32 } poison, ptr %29, 0
  %32 = insertvalue { ptr, i32 } %31, i32 %30, 1
  resume { ptr, i32 } %32
}

; Function Attrs: mustprogress nounwind uwtable
define internal void @"_ZN7FinallyIZN3nix7drainFDEiRNS0_4SinkEbE3$_0ED2Ev"(ptr noundef nonnull align 8 dereferenceable(24) %0) unnamed_addr #2 align 2 personality ptr @__gxx_personality_v0 {
  %2 = alloca ptr, align 8
  store ptr %0, ptr %2, align 8
  %3 = load ptr, ptr %2, align 8
  %4 = getelementptr inbounds %class.Finally, ptr %3, i32 0, i32 0
  invoke void @"_ZZN3nix7drainFDEiRNS_4SinkEbENK3$_0clEv"(ptr noundef nonnull align 8 dereferenceable(24) %4)
          to label %5 unwind label %6

5:                                                ; preds = %1
  ret void

6:                                                ; preds = %1
  %7 = landingpad { ptr, i32 }
          catch ptr null
  %8 = extractvalue { ptr, i32 } %7, 0
  call void @__clang_call_terminate(ptr %8) #21
  unreachable
}