; Function Attrs: mustprogress nounwind uwtable
define internal fastcc void @"_ZN7FinallyIZN3nix7drainFDEiRNS0_4SinkEbE3$_0ED2Ev"(ptr nocapture noundef nonnull readonly align 8 dereferenceable(24) %0) unnamed_addr #4 align 2 personality ptr @__gxx_personality_v0 {
  %2 = load ptr, ptr %0, align 8
  %3 = load i8, ptr %2, align 1
  %4 = and i8 %3, 1
  %.not.i = icmp eq i8 %4, 0
  br i1 %.not.i, label %5, label %"_ZZN3nix7drainFDEiRNS_4SinkEbENK3$_0clEv.exit"

5:                                                ; preds = %1
  %6 = getelementptr inbounds i8, ptr %0, i64 8
  %7 = load ptr, ptr %6, align 8
  %8 = load i32, ptr %7, align 4
  %9 = getelementptr inbounds i8, ptr %0, i64 16
  %10 = load ptr, ptr %9, align 8
  %11 = load i32, ptr %10, align 4
  %12 = invoke i32 (i32, i32, ...) @fcntl(i32 noundef %8, i32 noundef 4, i32 noundef %11)
          to label %.noexc unwind label %20

.noexc:                                           ; preds = %5
  %13 = icmp eq i32 %12, -1
  br i1 %13, label %14, label %"_ZZN3nix7drainFDEiRNS_4SinkEbENK3$_0clEv.exit"

14:                                               ; preds = %.noexc
  %15 = tail call ptr @__cxa_allocate_exception(i64 384) #29
  %16 = tail call ptr @__errno_location() #31
  %17 = load i32, ptr %16, align 4
  invoke void @_ZN3nix8SysErrorC2IJA32_cEEEiDpRKT_(ptr noundef nonnull align 8 dereferenceable(380) %15, i32 noundef %17, ptr noundef nonnull align 1 dereferenceable(32) @.str.35)
          to label %_ZN3nix8SysErrorC2IJA32_cEEEDpRKT_.exit unwind label %18

_ZN3nix8SysErrorC2IJA32_cEEEDpRKT_.exit:          ; preds = %14
  invoke void @__cxa_throw(ptr nonnull %15, ptr nonnull @_ZTIN3nix8SysErrorE, ptr nonnull @_ZN3nix8SysErrorD2Ev) #30
          to label %.noexc1 unwind label %20

.noexc1:                                          ; preds = %_ZN3nix8SysErrorC2IJA32_cEEEDpRKT_.exit
  unreachable

18:                                               ; preds = %14
  %19 = landingpad { ptr, i32 }
          catch ptr null
  tail call void @__cxa_free_exception(ptr %15) #29
  br label %.body

"_ZZN3nix7drainFDEiRNS_4SinkEbENK3$_0clEv.exit":  ; preds = %.noexc, %1
  ret void

20:                                               ; preds = %_ZN3nix8SysErrorC2IJA32_cEEEDpRKT_.exit, %5
  %21 = landingpad { ptr, i32 }
          catch ptr null
  br label %.body

.body:                                            ; preds = %18, %20
  %eh.lpad-body = phi { ptr, i32 } [ %21, %20 ], [ %19, %18 ]
  %22 = extractvalue { ptr, i32 } %eh.lpad-body, 0
  tail call void @__clang_call_terminate(ptr %22) #34
  unreachable
}